; Function Attrs: mustprogress uwtable
define dso_local i32 @_ZNK8V3Hasher6rehashEP7AstNode(ptr noundef nonnull readnone align 1 captures(none) dereferenceable(1) %0, ptr noundef initializes((140, 152)) %1) local_unnamed_addr #3 align 2 personality ptr @__gxx_personality_v0 {
  %3 = alloca %class.HasherVisitor, align 8
  %4 = getelementptr inbounds nuw i8, ptr %1, i64 144
  store i64 0, ptr %4, align 8, !tbaa !43
  %5 = load i32, ptr @_ZN12VNUser4InUse12s_userCntGblE, align 4, !tbaa !20
  %6 = getelementptr inbounds nuw i8, ptr %1, i64 140
  store i32 %5, ptr %6, align 4, !tbaa !4
  store ptr getelementptr inbounds nuw inrange(-16, 3736) (i8, ptr @_ZTV13HasherVisitor, i64 16), ptr %3, align 8, !tbaa !21
  %7 = getelementptr inbounds nuw i8, ptr %3, i64 8
  store i32 0, ptr %7, align 8, !tbaa !23
  %8 = getelementptr inbounds nuw i8, ptr %3, i64 12
  store i8 1, ptr %8, align 4, !tbaa !25
  %9 = getelementptr inbounds nuw i8, ptr %3, i64 24
  store i32 0, ptr %9, align 8, !tbaa !38
  %10 = getelementptr inbounds nuw i8, ptr %3, i64 32
  store ptr null, ptr %10, align 8, !tbaa !39
  %11 = getelementptr inbounds nuw i8, ptr %3, i64 40
  store ptr %9, ptr %11, align 8, !tbaa !40
  %12 = getelementptr inbounds nuw i8, ptr %3, i64 48
  store ptr %9, ptr %12, align 8, !tbaa !41
  %13 = getelementptr inbounds nuw i8, ptr %3, i64 56
  store i64 0, ptr %13, align 8, !tbaa !42
  %14 = load ptr, ptr %1, align 8, !tbaa !21
  %15 = getelementptr inbounds nuw i8, ptr %14, i64 288
  %16 = load ptr, ptr %15, align 8
  invoke void %16(ptr noundef nonnull align 8 dereferenceable(152) %1, ptr noundef nonnull align 8 dereferenceable(64) %3)
          to label %_ZN13HasherVisitorC2EP7AstNode.exit unwind label %17

17:                                               ; preds = %2
  %18 = landingpad { ptr, i32 }
          cleanup
  %19 = getelementptr inbounds nuw i8, ptr %3, i64 16
  call void @_ZNSt3setIP7AstNodeSt4lessIS1_ESaIS1_EED2Ev(ptr noundef nonnull align 8 dereferenceable(48) %19) #19
  resume { ptr, i32 } %18

_ZN13HasherVisitorC2EP7AstNode.exit:              ; preds = %2
  %20 = getelementptr inbounds nuw i8, ptr %3, i64 16
  %21 = load ptr, ptr %10, align 8, !tbaa !39
  invoke void @_ZNSt8_Rb_treeIP7AstNodeS1_St9_IdentityIS1_ESt4lessIS1_ESaIS1_EE8_M_eraseEPSt13_Rb_tree_nodeIS1_E(ptr noundef nonnull align 8 dereferenceable(48) %20, ptr noundef %21)
          to label %_ZN13HasherVisitorD2Ev.exit unwind label %22

22:                                               ; preds = %_ZN13HasherVisitorC2EP7AstNode.exit
  %23 = landingpad { ptr, i32 }
          catch ptr null
  %24 = extractvalue { ptr, i32 } %23, 0
  call void @__clang_call_terminate(ptr %24) #20
  unreachable

_ZN13HasherVisitorD2Ev.exit:                      ; preds = %_ZN13HasherVisitorC2EP7AstNode.exit
  %25 = load i32, ptr %6, align 4, !tbaa !4
  %26 = load i32, ptr @_ZN12VNUser4InUse12s_userCntGblE, align 4, !tbaa !20
  %27 = icmp eq i32 %25, %26
  %28 = load i64, ptr %4, align 8
  %29 = trunc i64 %28 to i32
  %.sroa.0.0.extract.trunc.i = select i1 %27, i32 %29, i32 0
  ret i32 %.sroa.0.0.extract.trunc.i
}